target datalayout = "e-m:e-p270:32:32-p271:32:32-p272:64:64-i64:64-i128:128-f80:128-n8:16:32:64-S128"
target triple = "x86_64-pc-linux-gnu"

; Function Attrs: mustprogress uwtable
define noundef i32 @_ZN7Imf_3_411rleCompressEiPKcPa(i32 noundef %0, ptr noundef %1, ptr noundef %2) #0 {
  %4 = alloca i32, align 4
  %5 = alloca ptr, align 8
  %6 = alloca ptr, align 8
  store i32 %0, ptr %4, align 4, !tbaa !3
  store ptr %1, ptr %5, align 8, !tbaa !7
  store ptr %2, ptr %6, align 8, !tbaa !7
  %7 = load i32, ptr %4, align 4, !tbaa !3
  %8 = sext i32 %7 to i64
  %9 = load ptr, ptr %5, align 8, !tbaa !7
  %10 = load ptr, ptr %6, align 8, !tbaa !7
  %11 = load i32, ptr %4, align 4, !tbaa !3
  %12 = sext i32 %11 to i64
  %13 = mul i64 %12, 3
  %14 = udiv i64 %13, 2
  %15 = call i64 @exr_rle_compress_buffer(i64 noundef %8, ptr noundef %9, ptr noundef %10, i64 noundef %14)
  %16 = trunc i64 %15 to i32
  ret i32 %16
}

declare i64 @exr_rle_compress_buffer(i64 noundef, ptr noundef, ptr noundef, i64 noundef) #1

; Function Attrs: mustprogress uwtable
define noundef i32 @_ZN7Imf_3_413rleUncompressEiiPKaPc(i32 noundef %0, i32 noundef %1, ptr noundef %2, ptr noundef %3) #0 {
  %5 = alloca i32, align 4
  %6 = alloca i32, align 4
  %7 = alloca ptr, align 8
  %8 = alloca ptr, align 8
  store i32 %0, ptr %5, align 4, !tbaa !3
  store i32 %1, ptr %6, align 4, !tbaa !3
  store ptr %2, ptr %7, align 8, !tbaa !7
  store ptr %3, ptr %8, align 8, !tbaa !7
  %9 = load i32, ptr %5, align 4, !tbaa !3
  %10 = sext i32 %9 to i64
  %11 = load i32, ptr %6, align 4, !tbaa !3
  %12 = sext i32 %11 to i64
  %13 = load ptr, ptr %7, align 8, !tbaa !7
  %14 = load ptr, ptr %8, align 8, !tbaa !7
  %15 = call i64 @exr_rle_uncompress_buffer(i64 noundef %10, i64 noundef %12, ptr noundef %13, ptr noundef %14)
  %16 = trunc i64 %15 to i32
  ret i32 %16
}

declare i64 @exr_rle_uncompress_buffer(i64 noundef, i64 noundef, ptr noundef, ptr noundef) #1


!llvm.module.flags = !{!0, !1, !2}

!0 = !{i32 1, !"wchar_size", i32 4}
!1 = !{i32 8, !"PIC Level", i32 2}
!2 = !{i32 7, !"uwtable", i32 2}
!3 = !{!4, !4, i64 0}
!4 = !{!"int", !5, i64 0}
!5 = !{!"omnipotent char", !6, i64 0}
!6 = !{!"Simple C++ TBAA"}
!7 = !{!8, !8, i64 0}
!8 = !{!"p1 omnipotent char", !9, i64 0}
!9 = !{!"any pointer", !5, i64 0}
